target datalayout = "e-m:e-p270:32:32-p271:32:32-p272:64:64-i64:64-i128:128-f80:128-n8:16:32:64-S128"
target triple = "x86_64-pc-linux-gnu"

%struct.jpeg_decompress_struct = type { ptr, ptr, ptr, ptr, i32, i32, ptr, i32, i32, i32, i32, i32, i32, i32, double, i32, i32, i32, i32, i32, i32, i32, i32, i32, i32, i32, i32, i32, i32, i32, i32, i32, i32, ptr, i32, i32, i32, i32, i32, ptr, [4 x ptr], [4 x ptr], [4 x ptr], i32, ptr, i32, i32, [16 x i8], [16 x i8], [16 x i8], i32, i32, i8, i8, i8, i16, i16, i32, i8, i32, ptr, i32, i32, i32, i32, ptr, i32, [4 x ptr], i32, i32, i32, [10 x i32], i32, i32, i32, i32, i32, ptr, ptr, ptr, ptr, ptr, ptr, ptr, ptr, ptr, ptr, ptr }
%struct.jpeg_decomp_master = type { ptr, ptr, i32, i32, i32, i32, [10 x i32], [10 x i32], i32, i32, ptr }
%struct.my_decomp_master = type { %struct.jpeg_decomp_master, i32, i32, ptr, ptr }
%struct.my_merged_upsampler = type { %struct.jpeg_upsampler, ptr, ptr, ptr, ptr, ptr, ptr, i32, i32, i32 }
%struct.jpeg_upsampler = type { ptr, ptr, ptr, ptr, i32 }
%struct.jpeg_color_deconverter = type { ptr, ptr, ptr, ptr }
%struct.jpeg_color_quantizer = type { ptr, ptr, ptr, ptr, ptr }

; Function Attrs: nounwind uwtable
define internal void @read_and_discard_scanlines(ptr noundef %0, i32 noundef %1) #0 {
  %3 = alloca ptr, align 8
  %4 = alloca i32, align 4
  %5 = alloca i32, align 4
  %6 = alloca ptr, align 8
  %7 = alloca [1 x i8], align 1
  %8 = alloca ptr, align 8
  %9 = alloca ptr, align 8
  %10 = alloca ptr, align 8
  %11 = alloca ptr, align 8
  %12 = alloca ptr, align 8
  store ptr %0, ptr %3, align 8, !tbaa !3
  store i32 %1, ptr %4, align 4, !tbaa !41
  call void @llvm.lifetime.start.p0(i64 4, ptr %5) #4
  call void @llvm.lifetime.start.p0(i64 8, ptr %6) #4
  %13 = load ptr, ptr %3, align 8, !tbaa !3
  %14 = getelementptr inbounds nuw %struct.jpeg_decompress_struct, ptr %13, i32 0, i32 77
  %15 = load ptr, ptr %14, align 8, !tbaa !52
  store ptr %15, ptr %6, align 8, !tbaa !70
  call void @llvm.lifetime.start.p0(i64 1, ptr %7) #4
  call void @llvm.memset.p0.i64(ptr align 1 %7, i8 0, i64 1, i1 false)
  call void @llvm.lifetime.start.p0(i64 8, ptr %8) #4
  %16 = getelementptr inbounds [1 x i8], ptr %7, i64 0, i64 0
  store ptr %16, ptr %8, align 8, !tbaa !127
  call void @llvm.lifetime.start.p0(i64 8, ptr %9) #4
  store ptr null, ptr %9, align 8, !tbaa !95
  call void @llvm.lifetime.start.p0(i64 8, ptr %10) #4
  store ptr null, ptr %10, align 8, !tbaa !70
  call void @llvm.lifetime.start.p0(i64 8, ptr %11) #4
  store ptr null, ptr %11, align 8, !tbaa !70
  %17 = load ptr, ptr %3, align 8, !tbaa !3
  %18 = getelementptr inbounds nuw %struct.jpeg_decompress_struct, ptr %17, i32 0, i32 86
  %19 = load ptr, ptr %18, align 8, !tbaa !128
  %20 = icmp ne ptr %19, null
  br i1 %20, label %21, label %38

21:                                               ; preds = %2
  %22 = load ptr, ptr %3, align 8, !tbaa !3
  %23 = getelementptr inbounds nuw %struct.jpeg_decompress_struct, ptr %22, i32 0, i32 86
  %24 = load ptr, ptr %23, align 8, !tbaa !128
  %25 = getelementptr inbounds nuw %struct.jpeg_color_deconverter, ptr %24, i32 0, i32 1
  %26 = load ptr, ptr %25, align 8, !tbaa !129
  %27 = icmp ne ptr %26, null
  br i1 %27, label %28, label %38

28:                                               ; preds = %21
  %29 = load ptr, ptr %3, align 8, !tbaa !3
  %30 = getelementptr inbounds nuw %struct.jpeg_decompress_struct, ptr %29, i32 0, i32 86
  %31 = load ptr, ptr %30, align 8, !tbaa !128
  %32 = getelementptr inbounds nuw %struct.jpeg_color_deconverter, ptr %31, i32 0, i32 1
  %33 = load ptr, ptr %32, align 8, !tbaa !129
  store ptr %33, ptr %10, align 8, !tbaa !70
  %34 = load ptr, ptr %3, align 8, !tbaa !3
  %35 = getelementptr inbounds nuw %struct.jpeg_decompress_struct, ptr %34, i32 0, i32 86
  %36 = load ptr, ptr %35, align 8, !tbaa !128
  %37 = getelementptr inbounds nuw %struct.jpeg_color_deconverter, ptr %36, i32 0, i32 1
  store ptr @noop_convert, ptr %37, align 8, !tbaa !129
  store ptr %8, ptr %9, align 8, !tbaa !95
  br label %38

38:                                               ; preds = %28, %21, %2
  %39 = load ptr, ptr %3, align 8, !tbaa !3
  %40 = getelementptr inbounds nuw %struct.jpeg_decompress_struct, ptr %39, i32 0, i32 87
  %41 = load ptr, ptr %40, align 8, !tbaa !131
  %42 = icmp ne ptr %41, null
  br i1 %42, label %43, label %60

43:                                               ; preds = %38
  %44 = load ptr, ptr %3, align 8, !tbaa !3
  %45 = getelementptr inbounds nuw %struct.jpeg_decompress_struct, ptr %44, i32 0, i32 87
  %46 = load ptr, ptr %45, align 8, !tbaa !131
  %47 = getelementptr inbounds nuw %struct.jpeg_color_quantizer, ptr %46, i32 0, i32 1
  %48 = load ptr, ptr %47, align 8, !tbaa !132
  %49 = icmp ne ptr %48, null
  br i1 %49, label %50, label %60

50:                                               ; preds = %43
  %51 = load ptr, ptr %3, align 8, !tbaa !3
  %52 = getelementptr inbounds nuw %struct.jpeg_decompress_struct, ptr %51, i32 0, i32 87
  %53 = load ptr, ptr %52, align 8, !tbaa !131
  %54 = getelementptr inbounds nuw %struct.jpeg_color_quantizer, ptr %53, i32 0, i32 1
  %55 = load ptr, ptr %54, align 8, !tbaa !132
  store ptr %55, ptr %11, align 8, !tbaa !70
  %56 = load ptr, ptr %3, align 8, !tbaa !3
  %57 = getelementptr inbounds nuw %struct.jpeg_decompress_struct, ptr %56, i32 0, i32 87
  %58 = load ptr, ptr %57, align 8, !tbaa !131
  %59 = getelementptr inbounds nuw %struct.jpeg_color_quantizer, ptr %58, i32 0, i32 1
  store ptr @noop_quantize, ptr %59, align 8, !tbaa !132
  br label %60

60:                                               ; preds = %50, %43, %38
  %61 = load ptr, ptr %6, align 8, !tbaa !70
  %62 = getelementptr inbounds nuw %struct.my_decomp_master, ptr %61, i32 0, i32 2
  %63 = load i32, ptr %62, align 4, !tbaa !77
  %64 = icmp ne i32 %63, 0
  br i1 %64, label %65, label %76

65:                                               ; preds = %60
  %66 = load ptr, ptr %3, align 8, !tbaa !3
  %67 = getelementptr inbounds nuw %struct.jpeg_decompress_struct, ptr %66, i32 0, i32 62
  %68 = load i32, ptr %67, align 4, !tbaa !79
  %69 = icmp eq i32 %68, 2
  br i1 %69, label %70, label %76

70:                                               ; preds = %65
  call void @llvm.lifetime.start.p0(i64 8, ptr %12) #4
  %71 = load ptr, ptr %3, align 8, !tbaa !3
  %72 = getelementptr inbounds nuw %struct.jpeg_decompress_struct, ptr %71, i32 0, i32 85
  %73 = load ptr, ptr %72, align 8, !tbaa !80
  store ptr %73, ptr %12, align 8, !tbaa !70
  %74 = load ptr, ptr %12, align 8, !tbaa !70
  %75 = getelementptr inbounds nuw %struct.my_merged_upsampler, ptr %74, i32 0, i32 6
  store ptr %75, ptr %9, align 8, !tbaa !95
  call void @llvm.lifetime.end.p0(i64 8, ptr %12) #4
  br label %76

76:                                               ; preds = %70, %65, %60
  store i32 0, ptr %5, align 4, !tbaa !41
  br label %77

77:                                               ; preds = %85, %76
  %78 = load i32, ptr %5, align 4, !tbaa !41
  %79 = load i32, ptr %4, align 4, !tbaa !41
  %80 = icmp ult i32 %78, %79
  br i1 %80, label %81, label %88

81:                                               ; preds = %77
  %82 = load ptr, ptr %3, align 8, !tbaa !3
  %83 = load ptr, ptr %9, align 8, !tbaa !95
  %84 = call i32 @jpeg_read_scanlines(ptr noundef %82, ptr noundef %83, i32 noundef 1)
  br label %85

85:                                               ; preds = %81
  %86 = load i32, ptr %5, align 4, !tbaa !41
  %87 = add i32 %86, 1
  store i32 %87, ptr %5, align 4, !tbaa !41
  br label %77, !llvm.loop !134

88:                                               ; preds = %77
  %89 = load ptr, ptr %10, align 8, !tbaa !70
  %90 = icmp ne ptr %89, null
  br i1 %90, label %91, label %97

91:                                               ; preds = %88
  %92 = load ptr, ptr %10, align 8, !tbaa !70
  %93 = load ptr, ptr %3, align 8, !tbaa !3
  %94 = getelementptr inbounds nuw %struct.jpeg_decompress_struct, ptr %93, i32 0, i32 86
  %95 = load ptr, ptr %94, align 8, !tbaa !128
  %96 = getelementptr inbounds nuw %struct.jpeg_color_deconverter, ptr %95, i32 0, i32 1
  store ptr %92, ptr %96, align 8, !tbaa !129
  br label %97

97:                                               ; preds = %91, %88
  %98 = load ptr, ptr %11, align 8, !tbaa !70
  %99 = icmp ne ptr %98, null
  br i1 %99, label %100, label %106

100:                                              ; preds = %97
  %101 = load ptr, ptr %11, align 8, !tbaa !70
  %102 = load ptr, ptr %3, align 8, !tbaa !3
  %103 = getelementptr inbounds nuw %struct.jpeg_decompress_struct, ptr %102, i32 0, i32 87
  %104 = load ptr, ptr %103, align 8, !tbaa !131
  %105 = getelementptr inbounds nuw %struct.jpeg_color_quantizer, ptr %104, i32 0, i32 1
  store ptr %101, ptr %105, align 8, !tbaa !132
  br label %106

106:                                              ; preds = %100, %97
  call void @llvm.lifetime.end.p0(i64 8, ptr %11) #4
  call void @llvm.lifetime.end.p0(i64 8, ptr %10) #4
  call void @llvm.lifetime.end.p0(i64 8, ptr %9) #4
  call void @llvm.lifetime.end.p0(i64 8, ptr %8) #4
  call void @llvm.lifetime.end.p0(i64 1, ptr %7) #4
  call void @llvm.lifetime.end.p0(i64 8, ptr %6) #4
  call void @llvm.lifetime.end.p0(i64 4, ptr %5) #4
  ret void
}