; Function Attrs: nounwind uwtable
define internal fastcc void @read_and_discard_scanlines(ptr noundef %0, i32 noundef %1) unnamed_addr #0 {
  %3 = alloca [1 x i8], align 1
  %4 = alloca ptr, align 8
  %5 = getelementptr inbounds nuw i8, ptr %0, i64 544
  %6 = load ptr, ptr %5, align 8, !tbaa !49
  call void @llvm.lifetime.start.p0(i64 1, ptr nonnull %3) #5
  store i8 0, ptr %3, align 1
  call void @llvm.lifetime.start.p0(i64 8, ptr nonnull %4) #5
  store ptr %3, ptr %4, align 8, !tbaa !100
  %7 = getelementptr inbounds nuw i8, ptr %0, i64 616
  %8 = load ptr, ptr %7, align 8, !tbaa !101
  %.not = icmp eq ptr %8, null
  br i1 %.not, label %13, label %9

9:                                                ; preds = %2
  %10 = getelementptr inbounds nuw i8, ptr %8, i64 8
  %11 = load ptr, ptr %10, align 8, !tbaa !102
  %.not30 = icmp eq ptr %11, null
  br i1 %.not30, label %13, label %12

12:                                               ; preds = %9
  store ptr @noop_convert, ptr %10, align 8, !tbaa !102
  br label %13

13:                                               ; preds = %12, %9, %2
  %.025 = phi ptr [ %4, %12 ], [ null, %9 ], [ null, %2 ]
  %.024 = phi ptr [ %11, %12 ], [ null, %9 ], [ null, %2 ]
  %14 = getelementptr inbounds nuw i8, ptr %0, i64 624
  %15 = load ptr, ptr %14, align 8, !tbaa !104
  %.not31 = icmp eq ptr %15, null
  br i1 %.not31, label %20, label %16

16:                                               ; preds = %13
  %17 = getelementptr inbounds nuw i8, ptr %15, i64 8
  %18 = load ptr, ptr %17, align 8, !tbaa !105
  %.not32 = icmp eq ptr %18, null
  br i1 %.not32, label %20, label %19

19:                                               ; preds = %16
  store ptr @noop_quantize, ptr %17, align 8, !tbaa !105
  br label %20

20:                                               ; preds = %19, %16, %13
  %.023 = phi ptr [ %18, %19 ], [ null, %16 ], [ null, %13 ]
  %21 = getelementptr inbounds nuw i8, ptr %6, i64 132
  %22 = load i32, ptr %21, align 4, !tbaa !73
  %.not33 = icmp eq i32 %22, 0
  br i1 %.not33, label %31, label %23

23:                                               ; preds = %20
  %24 = getelementptr inbounds nuw i8, ptr %0, i64 412
  %25 = load i32, ptr %24, align 4, !tbaa !75
  %26 = icmp eq i32 %25, 2
  br i1 %26, label %27, label %31

27:                                               ; preds = %23
  %28 = getelementptr inbounds nuw i8, ptr %0, i64 608
  %29 = load ptr, ptr %28, align 8, !tbaa !76
  %30 = getelementptr inbounds nuw i8, ptr %29, i64 80
  br label %31

31:                                               ; preds = %27, %23, %20
  %.1 = phi ptr [ %30, %27 ], [ %.025, %23 ], [ %.025, %20 ]
  %.not37 = icmp eq i32 %1, 0
  br i1 %.not37, label %._crit_edge, label %.lr.ph

.lr.ph:                                           ; preds = %31, %.lr.ph
  %.036 = phi i32 [ %33, %.lr.ph ], [ 0, %31 ]
  %32 = call i32 @jpeg_read_scanlines(ptr noundef %0, ptr noundef %.1, i32 noundef 1)
  %33 = add nuw i32 %.036, 1
  %exitcond.not = icmp eq i32 %33, %1
  br i1 %exitcond.not, label %._crit_edge, label %.lr.ph, !llvm.loop !107

._crit_edge:                                      ; preds = %.lr.ph, %31
  %.not34 = icmp eq ptr %.024, null
  br i1 %.not34, label %37, label %34

34:                                               ; preds = %._crit_edge
  %35 = load ptr, ptr %7, align 8, !tbaa !101
  %36 = getelementptr inbounds nuw i8, ptr %35, i64 8
  store ptr %.024, ptr %36, align 8, !tbaa !102
  br label %37

37:                                               ; preds = %34, %._crit_edge
  %.not35 = icmp eq ptr %.023, null
  br i1 %.not35, label %41, label %38

38:                                               ; preds = %37
  %39 = load ptr, ptr %14, align 8, !tbaa !104
  %40 = getelementptr inbounds nuw i8, ptr %39, i64 8
  store ptr %.023, ptr %40, align 8, !tbaa !105
  br label %41

41:                                               ; preds = %38, %37
  call void @llvm.lifetime.end.p0(i64 8, ptr nonnull %4) #5
  call void @llvm.lifetime.end.p0(i64 1, ptr nonnull %3) #5
  ret void
}